#include <math.h>
#include <stdio.h>
#include <stdlib.h>
#include <string.h>

int main()
{
    int a, i, n, sum=0;
    scanf("%d", &n);
    for(i=1;i<=n;i++){
        if(i%7==0||i%10==7||(int)(i/10)==7){
            continue;
        }
        else{
             sum=sum+i*i;
        }
    }
    printf("%d", sum);         
    return 0;
}
